target datalayout = "e-m:e-p270:32:32-p271:32:32-p272:64:64-i64:64-i128:128-f80:128-n8:16:32:64-S128"
target triple = "x86_64-pc-linux-gnu"

%struct.DBEDecodeContext = type { ptr, ptr, %struct.DBEContext, [8 x i8], [2 x [8 x %struct.DBEChannel]], [8 x [256 x float]], [2 x [3 x ptr]], [2 x [3 x ptr]], ptr, [8 x i8] }
%struct.DBEContext = type { ptr, %struct.GetBitContext, ptr, i32, i32, i32, i32, %struct.DolbyEHeaderInfo, [3136 x i8] }
%struct.GetBitContext = type { ptr, ptr, i32, i32, i32 }
%struct.DolbyEHeaderInfo = type { i32, i32, i32, i32, i32, [8 x i32], i32, i32, [8 x i32], [8 x i32], [8 x i32], i32, i32, i32 }
%struct.DBEChannel = type { i32, i32, i32, i32, [8 x %struct.DBEGroup], [8 x i32], [304 x i32], [304 x i32], [304 x i32], [1024 x float] }
%struct.DBEGroup = type { i8, [2 x i8], i16, i16, ptr, i8, i8, i16, i16, i16, i16 }
%struct.AVFloatDSPContext = type { ptr, ptr, ptr, ptr, ptr, ptr, ptr, ptr, ptr, ptr, ptr, ptr }

@imdct_bits_tab = internal constant [3 x i8] c"\08\09\0B", align 1
@window = internal global [3712 x float] zeroinitializer, align 16
@.str.30 = private unnamed_addr constant [30 x i8] c"Assertion %s failed at %s:%d\0A\00", align 1
@.str.31 = private unnamed_addr constant [2 x i8] c"0\00", align 1
@.str.32 = private unnamed_addr constant [21 x i8] c"libavcodec/dolby_e.c\00", align 1

; Function Attrs: nounwind uwtable
define internal void @imdct_calc(ptr noundef %0, ptr noundef %1, ptr noundef %2, ptr noundef %3) #1 {
  %5 = alloca ptr, align 8
  %6 = alloca ptr, align 8
  %7 = alloca ptr, align 8
  %8 = alloca ptr, align 8
  %9 = alloca ptr, align 8
  %10 = alloca ptr, align 8
  %11 = alloca i32, align 4
  %12 = alloca i32, align 4
  %13 = alloca i32, align 4
  %14 = alloca i32, align 4
  store ptr %0, ptr %5, align 8, !tbaa !29
  store ptr %1, ptr %6, align 8, !tbaa !121
  store ptr %2, ptr %7, align 8, !tbaa !110
  store ptr %3, ptr %8, align 8, !tbaa !110
  call void @llvm.lifetime.start.p0(i64 8, ptr %9) #10
  %15 = load ptr, ptr %5, align 8, !tbaa !29
  %16 = getelementptr inbounds nuw %struct.DBEDecodeContext, ptr %15, i32 0, i32 6
  %17 = load ptr, ptr %6, align 8, !tbaa !121
  %18 = getelementptr inbounds nuw %struct.DBEGroup, ptr %17, i32 0, i32 6
  %19 = load i8, ptr %18, align 1, !tbaa !180
  %20 = zext i8 %19 to i32
  %21 = icmp eq i32 %20, 1
  %22 = zext i1 %21 to i32
  %23 = sext i32 %22 to i64
  %24 = getelementptr inbounds [2 x [3 x ptr]], ptr %16, i64 0, i64 %23
  %25 = load ptr, ptr %6, align 8, !tbaa !121
  %26 = getelementptr inbounds nuw %struct.DBEGroup, ptr %25, i32 0, i32 5
  %27 = load i8, ptr %26, align 8, !tbaa !139
  %28 = zext i8 %27 to i64
  %29 = getelementptr inbounds nuw [3 x ptr], ptr %24, i64 0, i64 %28
  %30 = load ptr, ptr %29, align 8, !tbaa !181
  store ptr %30, ptr %9, align 8, !tbaa !181
  call void @llvm.lifetime.start.p0(i64 8, ptr %10) #10
  %31 = load ptr, ptr %5, align 8, !tbaa !29
  %32 = getelementptr inbounds nuw %struct.DBEDecodeContext, ptr %31, i32 0, i32 7
  %33 = load ptr, ptr %6, align 8, !tbaa !121
  %34 = getelementptr inbounds nuw %struct.DBEGroup, ptr %33, i32 0, i32 6
  %35 = load i8, ptr %34, align 1, !tbaa !180
  %36 = zext i8 %35 to i32
  %37 = icmp eq i32 %36, 1
  %38 = zext i1 %37 to i32
  %39 = sext i32 %38 to i64
  %40 = getelementptr inbounds [2 x [3 x ptr]], ptr %32, i64 0, i64 %39
  %41 = load ptr, ptr %6, align 8, !tbaa !121
  %42 = getelementptr inbounds nuw %struct.DBEGroup, ptr %41, i32 0, i32 5
  %43 = load i8, ptr %42, align 8, !tbaa !139
  %44 = zext i8 %43 to i64
  %45 = getelementptr inbounds nuw [3 x ptr], ptr %40, i64 0, i64 %44
  %46 = load ptr, ptr %45, align 8, !tbaa !64
  store ptr %46, ptr %10, align 8, !tbaa !64
  call void @llvm.lifetime.start.p0(i64 4, ptr %11) #10
  %47 = load ptr, ptr %6, align 8, !tbaa !121
  %48 = getelementptr inbounds nuw %struct.DBEGroup, ptr %47, i32 0, i32 5
  %49 = load i8, ptr %48, align 8, !tbaa !139
  %50 = zext i8 %49 to i64
  %51 = getelementptr inbounds nuw [3 x i8], ptr @imdct_bits_tab, i64 0, i64 %50
  %52 = load i8, ptr %51, align 1, !tbaa !33
  %53 = zext i8 %52 to i32
  %54 = shl i32 1, %53
  store i32 %54, ptr %11, align 4, !tbaa !32
  call void @llvm.lifetime.start.p0(i64 4, ptr %12) #10
  %55 = load i32, ptr %11, align 4, !tbaa !32
  %56 = ashr i32 %55, 1
  store i32 %56, ptr %12, align 4, !tbaa !32
  %57 = load ptr, ptr %6, align 8, !tbaa !121
  %58 = getelementptr inbounds nuw %struct.DBEGroup, ptr %57, i32 0, i32 6
  %59 = load i8, ptr %58, align 1, !tbaa !180
  %60 = zext i8 %59 to i32
  switch i32 %60, label %126 [
    i32 0, label %61
    i32 1, label %90
    i32 2, label %95
  ]

61:                                               ; preds = %4
  %62 = load ptr, ptr %10, align 8, !tbaa !64
  %63 = load ptr, ptr %9, align 8, !tbaa !181
  %64 = load ptr, ptr %7, align 8, !tbaa !110
  %65 = load ptr, ptr %8, align 8, !tbaa !110
  call void %62(ptr noundef %63, ptr noundef %64, ptr noundef %65, i64 noundef 4)
  call void @llvm.lifetime.start.p0(i64 4, ptr %13) #10
  store i32 0, ptr %13, align 4, !tbaa !32
  br label %66

66:                                               ; preds = %86, %61
  %67 = load i32, ptr %13, align 4, !tbaa !32
  %68 = load i32, ptr %12, align 4, !tbaa !32
  %69 = icmp slt i32 %67, %68
  br i1 %69, label %71, label %70

70:                                               ; preds = %66
  call void @llvm.lifetime.end.p0(i64 4, ptr %13) #10
  br label %89

71:                                               ; preds = %66
  %72 = load ptr, ptr %7, align 8, !tbaa !110
  %73 = load i32, ptr %12, align 4, !tbaa !32
  %74 = load i32, ptr %13, align 4, !tbaa !32
  %75 = sub nsw i32 %73, %74
  %76 = sub nsw i32 %75, 1
  %77 = sext i32 %76 to i64
  %78 = getelementptr inbounds float, ptr %72, i64 %77
  %79 = load float, ptr %78, align 4, !tbaa !31
  %80 = load ptr, ptr %7, align 8, !tbaa !110
  %81 = load i32, ptr %12, align 4, !tbaa !32
  %82 = load i32, ptr %13, align 4, !tbaa !32
  %83 = add nsw i32 %81, %82
  %84 = sext i32 %83 to i64
  %85 = getelementptr inbounds float, ptr %80, i64 %84
  store float %79, ptr %85, align 4, !tbaa !31
  br label %86

86:                                               ; preds = %71
  %87 = load i32, ptr %13, align 4, !tbaa !32
  %88 = add nsw i32 %87, 1
  store i32 %88, ptr %13, align 4, !tbaa !32
  br label %66, !llvm.loop !183

89:                                               ; preds = %70
  br label %130

90:                                               ; preds = %4
  %91 = load ptr, ptr %10, align 8, !tbaa !64
  %92 = load ptr, ptr %9, align 8, !tbaa !181
  %93 = load ptr, ptr %7, align 8, !tbaa !110
  %94 = load ptr, ptr %8, align 8, !tbaa !110
  call void %91(ptr noundef %92, ptr noundef %93, ptr noundef %94, i64 noundef 4)
  br label %130

95:                                               ; preds = %4
  %96 = load ptr, ptr %10, align 8, !tbaa !64
  %97 = load ptr, ptr %9, align 8, !tbaa !181
  %98 = load ptr, ptr %7, align 8, !tbaa !110
  %99 = load i32, ptr %12, align 4, !tbaa !32
  %100 = sext i32 %99 to i64
  %101 = getelementptr inbounds float, ptr %98, i64 %100
  %102 = load ptr, ptr %8, align 8, !tbaa !110
  call void %96(ptr noundef %97, ptr noundef %101, ptr noundef %102, i64 noundef 4)
  call void @llvm.lifetime.start.p0(i64 4, ptr %14) #10
  store i32 0, ptr %14, align 4, !tbaa !32
  br label %103

103:                                              ; preds = %122, %95
  %104 = load i32, ptr %14, align 4, !tbaa !32
  %105 = load i32, ptr %12, align 4, !tbaa !32
  %106 = icmp slt i32 %104, %105
  br i1 %106, label %108, label %107

107:                                              ; preds = %103
  call void @llvm.lifetime.end.p0(i64 4, ptr %14) #10
  br label %125

108:                                              ; preds = %103
  %109 = load ptr, ptr %7, align 8, !tbaa !110
  %110 = load i32, ptr %11, align 4, !tbaa !32
  %111 = load i32, ptr %14, align 4, !tbaa !32
  %112 = sub nsw i32 %110, %111
  %113 = sub nsw i32 %112, 1
  %114 = sext i32 %113 to i64
  %115 = getelementptr inbounds float, ptr %109, i64 %114
  %116 = load float, ptr %115, align 4, !tbaa !31
  %117 = fneg nsz float %116
  %118 = load ptr, ptr %7, align 8, !tbaa !110
  %119 = load i32, ptr %14, align 4, !tbaa !32
  %120 = sext i32 %119 to i64
  %121 = getelementptr inbounds float, ptr %118, i64 %120
  store float %117, ptr %121, align 4, !tbaa !31
  br label %122

122:                                              ; preds = %108
  %123 = load i32, ptr %14, align 4, !tbaa !32
  %124 = add nsw i32 %123, 1
  store i32 %124, ptr %14, align 4, !tbaa !32
  br label %103, !llvm.loop !184

125:                                              ; preds = %107
  br label %130

126:                                              ; preds = %4
  br label %127

127:                                              ; preds = %126
  call void (ptr, i32, ptr, ...) @av_log(ptr noundef null, i32 noundef 0, ptr noundef @.str.30, ptr noundef @.str.31, ptr noundef @.str.32, i32 noundef 1013)
  call void @abort() #12
  unreachable

128:                                              ; No predecessors!
  br label %129

129:                                              ; preds = %128
  br label %130

130:                                              ; preds = %129, %125, %90, %89
  call void @llvm.lifetime.end.p0(i64 4, ptr %12) #10
  call void @llvm.lifetime.end.p0(i64 4, ptr %11) #10
  call void @llvm.lifetime.end.p0(i64 8, ptr %10) #10
  call void @llvm.lifetime.end.p0(i64 8, ptr %9) #10
  ret void
}

; Function Attrs: nounwind uwtable
define internal void @transform(ptr noundef %0, ptr noundef %1, ptr noundef %2, ptr noundef %3) #1 {
  %5 = alloca ptr, align 8
  %6 = alloca ptr, align 8
  %7 = alloca ptr, align 8
  %8 = alloca ptr, align 8
  %9 = alloca [2048 x float], align 16
  %10 = alloca ptr, align 8
  %11 = alloca [1152 x float], align 16
  %12 = alloca ptr, align 8
  %13 = alloca ptr, align 8
  %14 = alloca i32, align 4
  %15 = alloca ptr, align 8
  %16 = alloca ptr, align 8
  %17 = alloca ptr, align 8
  store ptr %0, ptr %5, align 8, !tbaa !29
  store ptr %1, ptr %6, align 8, !tbaa !115
  store ptr %2, ptr %7, align 8, !tbaa !110
  store ptr %3, ptr %8, align 8, !tbaa !110
  call void @llvm.lifetime.start.p0(i64 8192, ptr %9) #10
  call void @llvm.lifetime.start.p0(i64 8, ptr %10) #10
  %18 = getelementptr inbounds [2048 x float], ptr %9, i64 0, i64 0
  store ptr %18, ptr %10, align 8, !tbaa !110
  call void @llvm.lifetime.start.p0(i64 4608, ptr %11) #10
  call void @llvm.lifetime.start.p0(i64 8, ptr %12) #10
  %19 = getelementptr inbounds [1152 x float], ptr %11, i64 0, i64 0
  store ptr %19, ptr %12, align 8, !tbaa !110
  call void @llvm.lifetime.start.p0(i64 8, ptr %13) #10
  call void @llvm.lifetime.start.p0(i64 4, ptr %14) #10
  %20 = load ptr, ptr %12, align 8, !tbaa !110
  call void @llvm.memset.p0.i64(ptr align 4 %20, i8 0, i64 4608, i1 false)
  store i32 0, ptr %14, align 4, !tbaa !32
  %21 = load ptr, ptr %6, align 8, !tbaa !115
  %22 = getelementptr inbounds nuw %struct.DBEChannel, ptr %21, i32 0, i32 4
  %23 = getelementptr inbounds [8 x %struct.DBEGroup], ptr %22, i64 0, i64 0
  store ptr %23, ptr %13, align 8, !tbaa !121
  br label %24

24:                                               ; preds = %76, %4
  %25 = load i32, ptr %14, align 4, !tbaa !32
  %26 = load ptr, ptr %6, align 8, !tbaa !115
  %27 = getelementptr inbounds nuw %struct.DBEChannel, ptr %26, i32 0, i32 2
  %28 = load i32, ptr %27, align 8, !tbaa !91
  %29 = icmp slt i32 %25, %28
  br i1 %29, label %30, label %81

30:                                               ; preds = %24
  call void @llvm.lifetime.start.p0(i64 8, ptr %15) #10
  %31 = load ptr, ptr %10, align 8, !tbaa !110
  %32 = load ptr, ptr %13, align 8, !tbaa !121
  %33 = getelementptr inbounds nuw %struct.DBEGroup, ptr %32, i32 0, i32 10
  %34 = load i16, ptr %33, align 8, !tbaa !168
  %35 = zext i16 %34 to i32
  %36 = sext i32 %35 to i64
  %37 = getelementptr inbounds float, ptr %31, i64 %36
  store ptr %37, ptr %15, align 8, !tbaa !110
  call void @llvm.lifetime.start.p0(i64 8, ptr %16) #10
  %38 = load ptr, ptr %12, align 8, !tbaa !110
  %39 = load ptr, ptr %13, align 8, !tbaa !121
  %40 = getelementptr inbounds nuw %struct.DBEGroup, ptr %39, i32 0, i32 8
  %41 = load i16, ptr %40, align 4, !tbaa !169
  %42 = zext i16 %41 to i32
  %43 = sext i32 %42 to i64
  %44 = getelementptr inbounds float, ptr %38, i64 %43
  store ptr %44, ptr %16, align 8, !tbaa !110
  call void @llvm.lifetime.start.p0(i64 8, ptr %17) #10
  %45 = load ptr, ptr %13, align 8, !tbaa !121
  %46 = getelementptr inbounds nuw %struct.DBEGroup, ptr %45, i32 0, i32 9
  %47 = load i16, ptr %46, align 2, !tbaa !170
  %48 = zext i16 %47 to i32
  %49 = sext i32 %48 to i64
  %50 = getelementptr inbounds float, ptr @window, i64 %49
  store ptr %50, ptr %17, align 8, !tbaa !110
  %51 = load ptr, ptr %5, align 8, !tbaa !29
  %52 = load ptr, ptr %13, align 8, !tbaa !121
  %53 = load ptr, ptr %10, align 8, !tbaa !110
  %54 = load ptr, ptr %6, align 8, !tbaa !115
  %55 = getelementptr inbounds nuw %struct.DBEChannel, ptr %54, i32 0, i32 9
  %56 = getelementptr inbounds [1024 x float], ptr %55, i64 0, i64 0
  %57 = load ptr, ptr %13, align 8, !tbaa !121
  %58 = getelementptr inbounds nuw %struct.DBEGroup, ptr %57, i32 0, i32 3
  %59 = load i16, ptr %58, align 2, !tbaa !145
  %60 = zext i16 %59 to i32
  %61 = sext i32 %60 to i64
  %62 = getelementptr inbounds float, ptr %56, i64 %61
  call void @imdct_calc(ptr noundef %51, ptr noundef %52, ptr noundef %53, ptr noundef %62)
  %63 = load ptr, ptr %5, align 8, !tbaa !29
  %64 = getelementptr inbounds nuw %struct.DBEDecodeContext, ptr %63, i32 0, i32 8
  %65 = load ptr, ptr %64, align 16, !tbaa !36
  %66 = getelementptr inbounds nuw %struct.AVFloatDSPContext, ptr %65, i32 0, i32 6
  %67 = load ptr, ptr %66, align 8, !tbaa !171
  %68 = load ptr, ptr %16, align 8, !tbaa !110
  %69 = load ptr, ptr %15, align 8, !tbaa !110
  %70 = load ptr, ptr %17, align 8, !tbaa !110
  %71 = load ptr, ptr %16, align 8, !tbaa !110
  %72 = load ptr, ptr %13, align 8, !tbaa !121
  %73 = getelementptr inbounds nuw %struct.DBEGroup, ptr %72, i32 0, i32 7
  %74 = load i16, ptr %73, align 2, !tbaa !173
  %75 = zext i16 %74 to i32
  call void %67(ptr noundef %68, ptr noundef %69, ptr noundef %70, ptr noundef %71, i32 noundef %75)
  call void @llvm.lifetime.end.p0(i64 8, ptr %17) #10
  call void @llvm.lifetime.end.p0(i64 8, ptr %16) #10
  call void @llvm.lifetime.end.p0(i64 8, ptr %15) #10
  br label %76

76:                                               ; preds = %30
  %77 = load i32, ptr %14, align 4, !tbaa !32
  %78 = add nsw i32 %77, 1
  store i32 %78, ptr %14, align 4, !tbaa !32
  %79 = load ptr, ptr %13, align 8, !tbaa !121
  %80 = getelementptr inbounds nuw %struct.DBEGroup, ptr %79, i32 1
  store ptr %80, ptr %13, align 8, !tbaa !121
  br label %24, !llvm.loop !174

81:                                               ; preds = %24
  store i32 0, ptr %14, align 4, !tbaa !32
  br label %82

82:                                               ; preds = %101, %81
  %83 = load i32, ptr %14, align 4, !tbaa !32
  %84 = icmp slt i32 %83, 256
  br i1 %84, label %85, label %104

85:                                               ; preds = %82
  %86 = load ptr, ptr %7, align 8, !tbaa !110
  %87 = load i32, ptr %14, align 4, !tbaa !32
  %88 = sext i32 %87 to i64
  %89 = getelementptr inbounds float, ptr %86, i64 %88
  %90 = load float, ptr %89, align 4, !tbaa !31
  %91 = load ptr, ptr %12, align 8, !tbaa !110
  %92 = load i32, ptr %14, align 4, !tbaa !32
  %93 = sext i32 %92 to i64
  %94 = getelementptr inbounds float, ptr %91, i64 %93
  %95 = load float, ptr %94, align 4, !tbaa !31
  %96 = fadd nsz float %90, %95
  %97 = load ptr, ptr %8, align 8, !tbaa !110
  %98 = load i32, ptr %14, align 4, !tbaa !32
  %99 = sext i32 %98 to i64
  %100 = getelementptr inbounds float, ptr %97, i64 %99
  store float %96, ptr %100, align 4, !tbaa !31
  br label %101

101:                                              ; preds = %85
  %102 = load i32, ptr %14, align 4, !tbaa !32
  %103 = add nsw i32 %102, 1
  store i32 %103, ptr %14, align 4, !tbaa !32
  br label %82, !llvm.loop !175

104:                                              ; preds = %82
  store i32 256, ptr %14, align 4, !tbaa !32
  br label %105

105:                                              ; preds = %118, %104
  %106 = load i32, ptr %14, align 4, !tbaa !32
  %107 = icmp slt i32 %106, 896
  br i1 %107, label %108, label %121

108:                                              ; preds = %105
  %109 = load ptr, ptr %12, align 8, !tbaa !110
  %110 = load i32, ptr %14, align 4, !tbaa !32
  %111 = sext i32 %110 to i64
  %112 = getelementptr inbounds float, ptr %109, i64 %111
  %113 = load float, ptr %112, align 4, !tbaa !31
  %114 = load ptr, ptr %8, align 8, !tbaa !110
  %115 = load i32, ptr %14, align 4, !tbaa !32
  %116 = sext i32 %115 to i64
  %117 = getelementptr inbounds float, ptr %114, i64 %116
  store float %113, ptr %117, align 4, !tbaa !31
  br label %118

118:                                              ; preds = %108
  %119 = load i32, ptr %14, align 4, !tbaa !32
  %120 = add nsw i32 %119, 1
  store i32 %120, ptr %14, align 4, !tbaa !32
  br label %105, !llvm.loop !176

121:                                              ; preds = %105
  store i32 0, ptr %14, align 4, !tbaa !32
  br label %122

122:                                              ; preds = %136, %121
  %123 = load i32, ptr %14, align 4, !tbaa !32
  %124 = icmp slt i32 %123, 256
  br i1 %124, label %125, label %139

125:                                              ; preds = %122
  %126 = load ptr, ptr %12, align 8, !tbaa !110
  %127 = load i32, ptr %14, align 4, !tbaa !32
  %128 = add nsw i32 896, %127
  %129 = sext i32 %128 to i64
  %130 = getelementptr inbounds float, ptr %126, i64 %129
  %131 = load float, ptr %130, align 4, !tbaa !31
  %132 = load ptr, ptr %7, align 8, !tbaa !110
  %133 = load i32, ptr %14, align 4, !tbaa !32
  %134 = sext i32 %133 to i64
  %135 = getelementptr inbounds float, ptr %132, i64 %134
  store float %131, ptr %135, align 4, !tbaa !31
  br label %136

136:                                              ; preds = %125
  %137 = load i32, ptr %14, align 4, !tbaa !32
  %138 = add nsw i32 %137, 1
  store i32 %138, ptr %14, align 4, !tbaa !32
  br label %122, !llvm.loop !177

139:                                              ; preds = %122
  call void @llvm.lifetime.end.p0(i64 4, ptr %14) #10
  call void @llvm.lifetime.end.p0(i64 8, ptr %13) #10
  call void @llvm.lifetime.end.p0(i64 8, ptr %12) #10
  call void @llvm.lifetime.end.p0(i64 4608, ptr %11) #10
  call void @llvm.lifetime.end.p0(i64 8, ptr %10) #10
  call void @llvm.lifetime.end.p0(i64 8192, ptr %9) #10
  ret void
}