; Function Attrs: nounwind uwtable
define internal fastcc void @transform(ptr noundef readonly captures(none) %0, ptr noundef %1, ptr noundef captures(none) %2, ptr noundef writeonly captures(none) %3) unnamed_addr #1 {
  %5 = alloca [2048 x float], align 16
  %6 = alloca [1152 x float], align 16
  call void @llvm.lifetime.start.p0(i64 8192, ptr nonnull %5) #10
  call void @llvm.lifetime.start.p0(i64 4608, ptr nonnull %6) #10
  call void @llvm.memset.p0.i64(ptr noundef nonnull align 16 dereferenceable(4608) %6, i8 0, i64 4608, i1 false)
  %7 = getelementptr inbounds nuw i8, ptr %1, i64 8
  %8 = load i32, ptr %7, align 8, !tbaa !96
  %9 = icmp sgt i32 %8, 0
  br i1 %9, label %.lr.ph, label %.preheader44.preheader

.lr.ph:                                           ; preds = %4
  %10 = getelementptr inbounds nuw i8, ptr %1, i64 16
  %11 = getelementptr inbounds nuw i8, ptr %1, i64 3952
  %12 = getelementptr inbounds nuw i8, ptr %0, i64 140352
  %13 = getelementptr inbounds nuw i8, ptr %0, i64 140400
  %14 = getelementptr inbounds nuw i8, ptr %0, i64 140448
  br label %15

15:                                               ; preds = %.lr.ph, %imdct_calc.exit
  %.047 = phi ptr [ %10, %.lr.ph ], [ %74, %imdct_calc.exit ]
  %.04146 = phi i32 [ 0, %.lr.ph ], [ %73, %imdct_calc.exit ]
  %16 = getelementptr inbounds nuw i8, ptr %.047, i64 24
  %17 = load i16, ptr %16, align 8, !tbaa !144
  %18 = zext i16 %17 to i64
  %19 = getelementptr inbounds nuw float, ptr %5, i64 %18
  %20 = getelementptr inbounds nuw i8, ptr %.047, i64 20
  %21 = load i16, ptr %20, align 4, !tbaa !145
  %22 = zext i16 %21 to i64
  %23 = getelementptr inbounds nuw float, ptr %6, i64 %22
  %24 = getelementptr inbounds nuw i8, ptr %.047, i64 22
  %25 = load i16, ptr %24, align 2, !tbaa !146
  %26 = zext i16 %25 to i64
  %27 = getelementptr inbounds nuw float, ptr @window, i64 %26
  %28 = getelementptr inbounds nuw i8, ptr %.047, i64 6
  %29 = load i16, ptr %28, align 2, !tbaa !133
  %30 = zext i16 %29 to i64
  %31 = getelementptr inbounds nuw float, ptr %11, i64 %30
  %32 = getelementptr i8, ptr %.047, i64 16
  %.0.val = load i8, ptr %32, align 8, !tbaa !119
  %33 = getelementptr i8, ptr %.047, i64 17
  %.0.val42 = load i8, ptr %33, align 1, !tbaa !147
  %34 = icmp eq i8 %.0.val42, 1
  %35 = zext i1 %34 to i64
  %36 = zext i8 %.0.val to i64
  %37 = getelementptr inbounds nuw [2 x [3 x ptr]], ptr %12, i64 0, i64 %35, i64 %36
  %38 = load ptr, ptr %37, align 8, !tbaa !148
  %39 = getelementptr inbounds nuw [2 x [3 x ptr]], ptr %13, i64 0, i64 %35, i64 %36
  %40 = load ptr, ptr %39, align 8, !tbaa !50
  %41 = getelementptr inbounds nuw [3 x i8], ptr @imdct_bits_tab, i64 0, i64 %36
  %42 = load i8, ptr %41, align 1, !tbaa !30
  %43 = zext nneg i8 %42 to i32
  %44 = shl nuw i32 1, %43
  %45 = ashr i32 %44, 1
  switch i8 %.0.val42, label %66 [
    i8 0, label %46
    i8 1, label %53
    i8 2, label %54
  ]

46:                                               ; preds = %15
  call void %40(ptr noundef %38, ptr noundef nonnull %5, ptr noundef nonnull %31, i64 noundef 4) #10
  %47 = icmp sgt i32 %45, 0
  br i1 %47, label %.lr.ph4.preheader.i, label %imdct_calc.exit

.lr.ph4.preheader.i:                              ; preds = %46
  %48 = zext nneg i32 %45 to i64
  %49 = getelementptr float, ptr %5, i64 %48
  br label %.lr.ph4.i

.lr.ph4.i:                                        ; preds = %.lr.ph4.i, %.lr.ph4.preheader.i
  %indvars.iv7.i = phi i64 [ 0, %.lr.ph4.preheader.i ], [ %indvars.iv.next8.i, %.lr.ph4.i ]
  %50 = xor i64 %indvars.iv7.i, -1
  %51 = getelementptr float, ptr %49, i64 %50
  %52 = load float, ptr %51, align 4, !tbaa !27
  %gep.i = getelementptr inbounds nuw float, ptr %49, i64 %indvars.iv7.i
  store float %52, ptr %gep.i, align 4, !tbaa !27
  %indvars.iv.next8.i = add nuw nsw i64 %indvars.iv7.i, 1
  %exitcond11.not.i = icmp eq i64 %indvars.iv.next8.i, %48
  br i1 %exitcond11.not.i, label %imdct_calc.exit, label %.lr.ph4.i, !llvm.loop !150

53:                                               ; preds = %15
  call void %40(ptr noundef %38, ptr noundef nonnull %5, ptr noundef nonnull %31, i64 noundef 4) #10
  br label %imdct_calc.exit

54:                                               ; preds = %15
  %55 = sext i32 %45 to i64
  %56 = getelementptr inbounds float, ptr %5, i64 %55
  call void %40(ptr noundef %38, ptr noundef nonnull %56, ptr noundef nonnull %31, i64 noundef 4) #10
  %57 = icmp sgt i32 %45, 0
  br i1 %57, label %.lr.ph.preheader.i, label %imdct_calc.exit

.lr.ph.preheader.i:                               ; preds = %54
  %wide.trip.count.i = zext nneg i32 %45 to i64
  br label %.lr.ph.i

.lr.ph.i:                                         ; preds = %.lr.ph.i, %.lr.ph.preheader.i
  %indvars.iv.i = phi i64 [ 0, %.lr.ph.preheader.i ], [ %indvars.iv.next.i, %.lr.ph.i ]
  %58 = trunc i64 %indvars.iv.i to i32
  %59 = xor i32 %58, -1
  %60 = add i32 %44, %59
  %61 = sext i32 %60 to i64
  %62 = getelementptr inbounds float, ptr %5, i64 %61
  %63 = load float, ptr %62, align 4, !tbaa !27
  %64 = fneg nsz float %63
  %65 = getelementptr inbounds nuw float, ptr %5, i64 %indvars.iv.i
  store float %64, ptr %65, align 4, !tbaa !27
  %indvars.iv.next.i = add nuw nsw i64 %indvars.iv.i, 1
  %exitcond.not.i = icmp eq i64 %indvars.iv.next.i, %wide.trip.count.i
  br i1 %exitcond.not.i, label %imdct_calc.exit, label %.lr.ph.i, !llvm.loop !151

66:                                               ; preds = %15
  call void (ptr, i32, ptr, ...) @av_log(ptr noundef null, i32 noundef 0, ptr noundef nonnull @.str.30, ptr noundef nonnull @.str.31, ptr noundef nonnull @.str.32, i32 noundef 1013) #10
  call void @abort() #11
  unreachable

imdct_calc.exit:                                  ; preds = %.lr.ph.i, %.lr.ph4.i, %46, %53, %54
  %67 = load ptr, ptr %14, align 16, !tbaa !31
  %68 = getelementptr inbounds nuw i8, ptr %67, i64 48
  %69 = load ptr, ptr %68, align 8, !tbaa !152
  %70 = getelementptr inbounds nuw i8, ptr %.047, i64 18
  %71 = load i16, ptr %70, align 2, !tbaa !153
  %72 = zext i16 %71 to i32
  call void %69(ptr noundef nonnull %23, ptr noundef nonnull %19, ptr noundef nonnull %27, ptr noundef nonnull %23, i32 noundef %72) #10
  %73 = add nuw nsw i32 %.04146, 1
  %74 = getelementptr inbounds nuw i8, ptr %.047, i64 32
  %75 = load i32, ptr %7, align 8, !tbaa !96
  %76 = icmp slt i32 %73, %75
  br i1 %76, label %15, label %.preheader44.preheader, !llvm.loop !154

.preheader44.preheader:                           ; preds = %imdct_calc.exit, %4
  br label %.preheader44

.preheader44:                                     ; preds = %.preheader44.preheader, %.preheader44
  %indvars.iv = phi i64 [ %indvars.iv.next, %.preheader44 ], [ 0, %.preheader44.preheader ]
  %77 = getelementptr inbounds nuw float, ptr %2, i64 %indvars.iv
  %78 = load float, ptr %77, align 4, !tbaa !27
  %79 = getelementptr inbounds nuw float, ptr %6, i64 %indvars.iv
  %80 = load float, ptr %79, align 4, !tbaa !27
  %81 = fadd nsz float %78, %80
  %82 = getelementptr inbounds nuw float, ptr %3, i64 %indvars.iv
  store float %81, ptr %82, align 4, !tbaa !27
  %indvars.iv.next = add nuw nsw i64 %indvars.iv, 1
  %exitcond.not = icmp eq i64 %indvars.iv.next, 256
  br i1 %exitcond.not, label %.preheader43.preheader, label %.preheader44, !llvm.loop !155

.preheader43.preheader:                           ; preds = %.preheader44
  %scevgep = getelementptr i8, ptr %3, i64 1024
  %scevgep53 = getelementptr inbounds nuw i8, ptr %6, i64 1024
  call void @llvm.memcpy.p0.p0.i64(ptr noundef nonnull align 4 dereferenceable(2560) %scevgep, ptr noundef nonnull align 16 dereferenceable(2560) %scevgep53, i64 2560, i1 false), !tbaa !27
  %invariant.gep = getelementptr inbounds nuw i8, ptr %6, i64 3584
  call void @llvm.memcpy.p0.p0.i64(ptr noundef nonnull align 4 dereferenceable(1024) %2, ptr noundef nonnull align 16 dereferenceable(1024) %invariant.gep, i64 1024, i1 false), !tbaa !27
  call void @llvm.lifetime.end.p0(i64 4608, ptr nonnull %6) #10
  call void @llvm.lifetime.end.p0(i64 8192, ptr nonnull %5) #10
  ret void
}